; Function Attrs: mustprogress uwtable
define void @_ZN9grpc_core20hpack_encoder_detail10CompressorINS_18HttpSchemeMetadataENS_20HttpSchemeCompressorEE10EncodeWithES2_NS2_9ValueTypeEPNS0_7EncoderE(ptr noundef nonnull readnone align 1 captures(none) dereferenceable(1) %0, i8 noundef zeroext %1, ptr noundef captures(none) %2) local_unnamed_addr #3 align 2 personality ptr @__gxx_personality_v0 {
  %4 = alloca %"class.absl::lts_20240722::log_internal::LogMessage", align 8
  switch i8 %1, label %17 [
    i8 0, label %5
    i8 1, label %9
    i8 2, label %13
  ]

5:                                                ; preds = %3
  %6 = getelementptr inbounds nuw i8, ptr %2, i64 16
  %7 = load ptr, ptr %6, align 8, !tbaa !103
  %8 = tail call noundef ptr @grpc_slice_buffer_tiny_add(ptr noundef nonnull align 8 dereferenceable(232) %7, i64 noundef 1)
  store i8 -122, ptr %8, align 1, !tbaa !25
  br label %17

9:                                                ; preds = %3
  %10 = getelementptr inbounds nuw i8, ptr %2, i64 16
  %11 = load ptr, ptr %10, align 8, !tbaa !103
  %12 = tail call noundef ptr @grpc_slice_buffer_tiny_add(ptr noundef nonnull align 8 dereferenceable(232) %11, i64 noundef 1)
  store i8 -121, ptr %12, align 1, !tbaa !25
  br label %17

13:                                               ; preds = %3
  call void @llvm.lifetime.start.p0(i64 16, ptr nonnull %4) #27
  call void @_ZN4absl12lts_2024072212log_internal10LogMessageC1EPKciNS2_8ErrorTagE(ptr noundef nonnull align 8 dereferenceable(16) %4, ptr noundef nonnull @.str, i32 noundef 377) #28
  invoke void @_ZN4absl12lts_2024072212log_internal10LogMessage19CopyToEncodedBufferILNS2_10StringTypeE0EEEvSt17basic_string_viewIcSt11char_traitsIcEE(ptr noundef nonnull align 8 dereferenceable(16) %4, i64 28, ptr nonnull @.str.3)
          to label %_ZN4absl12lts_2024072212log_internal10LogMessagelsILi29EEERS2_RAT__Kc.exit unwind label %15

_ZN4absl12lts_2024072212log_internal10LogMessagelsILi29EEERS2_RAT__Kc.exit: ; preds = %13
  call void @_ZN4absl12lts_2024072212log_internal10LogMessageD1Ev(ptr noundef nonnull align 8 dereferenceable(16) %4) #29
  call void @llvm.lifetime.end.p0(i64 16, ptr nonnull %4) #27
  %14 = getelementptr inbounds nuw i8, ptr %2, i64 1
  store i8 1, ptr %14, align 1, !tbaa !281
  br label %17

15:                                               ; preds = %13
  %16 = landingpad { ptr, i32 }
          cleanup
  call void @_ZN4absl12lts_2024072212log_internal10LogMessageD1Ev(ptr noundef nonnull align 8 dereferenceable(16) %4) #29
  call void @llvm.lifetime.end.p0(i64 16, ptr nonnull %4) #27
  resume { ptr, i32 } %16

17:                                               ; preds = %_ZN4absl12lts_2024072212log_internal10LogMessagelsILi29EEERS2_RAT__Kc.exit, %9, %5, %3
  ret void
}